target datalayout = "e-m:e-p270:32:32-p271:32:32-p272:64:64-i64:64-i128:128-f80:128-n8:16:32:64-S128"
target triple = "x86_64-pc-linux-gnu"

%"class.testing::internal::ParamGenerator" = type { %"class.testing::internal::linked_ptr" }
%"class.testing::internal::linked_ptr" = type { ptr, %"class.testing::internal::linked_ptr_internal" }
%"class.testing::internal::linked_ptr_internal" = type { ptr }
%"class.testing::internal::ValueArray3" = type { ptr, ptr, ptr }
%"class.testing::internal::CartesianProductHolder2.119" = type { %"class.testing::internal::ValueArray7", %"class.testing::internal::ValueArray3" }
%"class.testing::internal::ValueArray7" = type { i32, i32, i32, i32, i32, i32, i32 }

@.str.49 = private unnamed_addr constant [68 x i8] c"cv/detectors_descriptors_evaluation/images_datasets/leuven/img1.png\00", align 1
@.str.50 = private unnamed_addr constant [17 x i8] c"stitching/a3.png\00", align 1
@.str.51 = private unnamed_addr constant [17 x i8] c"stitching/s2.jpg\00", align 1

; Function Attrs: mustprogress nounwind uwtable
define linkonce_odr hidden void @_ZN7testing8internal11ValueArray3IPKcS3_S3_EC2ERKS4_(ptr noundef nonnull align 8 dereferenceable(24) %0, ptr noundef nonnull align 8 dereferenceable(24) %1) unnamed_addr #4 comdat align 2 {
  %3 = alloca ptr, align 8
  %4 = alloca ptr, align 8
  store ptr %0, ptr %3, align 8
  store ptr %1, ptr %4, align 8
  %5 = load ptr, ptr %3, align 8
  %6 = getelementptr inbounds %"class.testing::internal::ValueArray3", ptr %5, i32 0, i32 0
  %7 = load ptr, ptr %4, align 8
  %8 = getelementptr inbounds %"class.testing::internal::ValueArray3", ptr %7, i32 0, i32 0
  %9 = load ptr, ptr %8, align 8
  store ptr %9, ptr %6, align 8
  %10 = getelementptr inbounds %"class.testing::internal::ValueArray3", ptr %5, i32 0, i32 1
  %11 = load ptr, ptr %4, align 8
  %12 = getelementptr inbounds %"class.testing::internal::ValueArray3", ptr %11, i32 0, i32 1
  %13 = load ptr, ptr %12, align 8
  store ptr %13, ptr %10, align 8
  %14 = getelementptr inbounds %"class.testing::internal::ValueArray3", ptr %5, i32 0, i32 2
  %15 = load ptr, ptr %4, align 8
  %16 = getelementptr inbounds %"class.testing::internal::ValueArray3", ptr %15, i32 0, i32 2
  %17 = load ptr, ptr %16, align 8
  store ptr %17, ptr %14, align 8
  ret void
}

; Function Attrs: mustprogress nounwind uwtable
define linkonce_odr hidden void @_ZN7testing8internal11ValueArray7IN11opencv_test13Feature2DValsES3_S3_S3_S3_S3_S3_EC2ERKS4_(ptr noundef nonnull align 4 dereferenceable(28) %0, ptr noundef nonnull align 4 dereferenceable(28) %1) unnamed_addr #4 comdat align 2 {
  %3 = alloca ptr, align 8
  %4 = alloca ptr, align 8
  store ptr %0, ptr %3, align 8
  store ptr %1, ptr %4, align 8
  %5 = load ptr, ptr %3, align 8
  %6 = getelementptr inbounds %"class.testing::internal::ValueArray7", ptr %5, i32 0, i32 0
  %7 = load ptr, ptr %4, align 8
  %8 = getelementptr inbounds %"class.testing::internal::ValueArray7", ptr %7, i32 0, i32 0
  %9 = load i32, ptr %8, align 4
  store i32 %9, ptr %6, align 4
  %10 = getelementptr inbounds %"class.testing::internal::ValueArray7", ptr %5, i32 0, i32 1
  %11 = load ptr, ptr %4, align 8
  %12 = getelementptr inbounds %"class.testing::internal::ValueArray7", ptr %11, i32 0, i32 1
  %13 = load i32, ptr %12, align 4
  store i32 %13, ptr %10, align 4
  %14 = getelementptr inbounds %"class.testing::internal::ValueArray7", ptr %5, i32 0, i32 2
  %15 = load ptr, ptr %4, align 8
  %16 = getelementptr inbounds %"class.testing::internal::ValueArray7", ptr %15, i32 0, i32 2
  %17 = load i32, ptr %16, align 4
  store i32 %17, ptr %14, align 4
  %18 = getelementptr inbounds %"class.testing::internal::ValueArray7", ptr %5, i32 0, i32 3
  %19 = load ptr, ptr %4, align 8
  %20 = getelementptr inbounds %"class.testing::internal::ValueArray7", ptr %19, i32 0, i32 3
  %21 = load i32, ptr %20, align 4
  store i32 %21, ptr %18, align 4
  %22 = getelementptr inbounds %"class.testing::internal::ValueArray7", ptr %5, i32 0, i32 4
  %23 = load ptr, ptr %4, align 8
  %24 = getelementptr inbounds %"class.testing::internal::ValueArray7", ptr %23, i32 0, i32 4
  %25 = load i32, ptr %24, align 4
  store i32 %25, ptr %22, align 4
  %26 = getelementptr inbounds %"class.testing::internal::ValueArray7", ptr %5, i32 0, i32 5
  %27 = load ptr, ptr %4, align 8
  %28 = getelementptr inbounds %"class.testing::internal::ValueArray7", ptr %27, i32 0, i32 5
  %29 = load i32, ptr %28, align 4
  store i32 %29, ptr %26, align 4
  %30 = getelementptr inbounds %"class.testing::internal::ValueArray7", ptr %5, i32 0, i32 6
  %31 = load ptr, ptr %4, align 8
  %32 = getelementptr inbounds %"class.testing::internal::ValueArray7", ptr %31, i32 0, i32 6
  %33 = load i32, ptr %32, align 4
  store i32 %33, ptr %30, align 4
  ret void
}

; Function Attrs: mustprogress uwtable
define linkonce_odr hidden void @_ZN7testing8internal23CartesianProductHolder2INS0_11ValueArray7IN11opencv_test13Feature2DValsES4_S4_S4_S4_S4_S4_EENS0_11ValueArray3IPKcS8_S8_EEEC2ERKS5_RKS9_(ptr noundef nonnull align 8 dereferenceable(56) %0, ptr noundef nonnull align 4 dereferenceable(28) %1, ptr noundef nonnull align 8 dereferenceable(24) %2) unnamed_addr #5 comdat align 2 {
  %4 = alloca ptr, align 8
  %5 = alloca ptr, align 8
  %6 = alloca ptr, align 8
  store ptr %0, ptr %4, align 8
  store ptr %1, ptr %5, align 8
  store ptr %2, ptr %6, align 8
  %7 = load ptr, ptr %4, align 8
  %8 = getelementptr inbounds %"class.testing::internal::CartesianProductHolder2.119", ptr %7, i32 0, i32 0
  %9 = load ptr, ptr %5, align 8
  call void @_ZN7testing8internal11ValueArray7IN11opencv_test13Feature2DValsES3_S3_S3_S3_S3_S3_EC2ERKS4_(ptr noundef nonnull align 4 dereferenceable(28) %8, ptr noundef nonnull align 4 dereferenceable(28) %9)
  %10 = getelementptr inbounds %"class.testing::internal::CartesianProductHolder2.119", ptr %7, i32 0, i32 1
  %11 = load ptr, ptr %6, align 8
  call void @_ZN7testing8internal11ValueArray3IPKcS3_S3_EC2ERKS4_(ptr noundef nonnull align 8 dereferenceable(24) %10, ptr noundef nonnull align 8 dereferenceable(24) %11)
  ret void
}

; Function Attrs: mustprogress nounwind uwtable
define linkonce_odr hidden void @_ZN7testing8internal11ValueArray3IPKcS3_S3_EC2ES3_S3_S3_(ptr noundef nonnull align 8 dereferenceable(24) %0, ptr noundef %1, ptr noundef %2, ptr noundef %3) unnamed_addr #4 comdat align 2 {
  %5 = alloca ptr, align 8
  %6 = alloca ptr, align 8
  %7 = alloca ptr, align 8
  %8 = alloca ptr, align 8
  store ptr %0, ptr %5, align 8
  store ptr %1, ptr %6, align 8
  store ptr %2, ptr %7, align 8
  store ptr %3, ptr %8, align 8
  %9 = load ptr, ptr %5, align 8
  %10 = getelementptr inbounds %"class.testing::internal::ValueArray3", ptr %9, i32 0, i32 0
  %11 = load ptr, ptr %6, align 8
  store ptr %11, ptr %10, align 8
  %12 = getelementptr inbounds %"class.testing::internal::ValueArray3", ptr %9, i32 0, i32 1
  %13 = load ptr, ptr %7, align 8
  store ptr %13, ptr %12, align 8
  %14 = getelementptr inbounds %"class.testing::internal::ValueArray3", ptr %9, i32 0, i32 2
  %15 = load ptr, ptr %8, align 8
  store ptr %15, ptr %14, align 8
  ret void
}

; Function Attrs: mustprogress nounwind uwtable
define linkonce_odr hidden void @_ZN7testing8internal11ValueArray7IN11opencv_test13Feature2DValsES3_S3_S3_S3_S3_S3_EC2ES3_S3_S3_S3_S3_S3_S3_(ptr noundef nonnull align 4 dereferenceable(28) %0, i32 noundef %1, i32 noundef %2, i32 noundef %3, i32 noundef %4, i32 noundef %5, i32 noundef %6, i32 noundef %7) unnamed_addr #4 comdat align 2 {
  %9 = alloca ptr, align 8
  %10 = alloca i32, align 4
  %11 = alloca i32, align 4
  %12 = alloca i32, align 4
  %13 = alloca i32, align 4
  %14 = alloca i32, align 4
  %15 = alloca i32, align 4
  %16 = alloca i32, align 4
  store ptr %0, ptr %9, align 8
  store i32 %1, ptr %10, align 4
  store i32 %2, ptr %11, align 4
  store i32 %3, ptr %12, align 4
  store i32 %4, ptr %13, align 4
  store i32 %5, ptr %14, align 4
  store i32 %6, ptr %15, align 4
  store i32 %7, ptr %16, align 4
  %17 = load ptr, ptr %9, align 8
  %18 = getelementptr inbounds %"class.testing::internal::ValueArray7", ptr %17, i32 0, i32 0
  %19 = load i32, ptr %10, align 4
  store i32 %19, ptr %18, align 4
  %20 = getelementptr inbounds %"class.testing::internal::ValueArray7", ptr %17, i32 0, i32 1
  %21 = load i32, ptr %11, align 4
  store i32 %21, ptr %20, align 4
  %22 = getelementptr inbounds %"class.testing::internal::ValueArray7", ptr %17, i32 0, i32 2
  %23 = load i32, ptr %12, align 4
  store i32 %23, ptr %22, align 4
  %24 = getelementptr inbounds %"class.testing::internal::ValueArray7", ptr %17, i32 0, i32 3
  %25 = load i32, ptr %13, align 4
  store i32 %25, ptr %24, align 4
  %26 = getelementptr inbounds %"class.testing::internal::ValueArray7", ptr %17, i32 0, i32 4
  %27 = load i32, ptr %14, align 4
  store i32 %27, ptr %26, align 4
  %28 = getelementptr inbounds %"class.testing::internal::ValueArray7", ptr %17, i32 0, i32 5
  %29 = load i32, ptr %15, align 4
  store i32 %29, ptr %28, align 4
  %30 = getelementptr inbounds %"class.testing::internal::ValueArray7", ptr %17, i32 0, i32 6
  %31 = load i32, ptr %16, align 4
  store i32 %31, ptr %30, align 4
  ret void
}

; Function Attrs: mustprogress uwtable
define linkonce_odr hidden void @_ZN7testing7CombineINS_8internal11ValueArray7IN11opencv_test13Feature2DValsES4_S4_S4_S4_S4_S4_EENS1_11ValueArray3IPKcS8_S8_EEEENS1_23CartesianProductHolder2IT_T0_EERKSB_RKSC_(ptr dead_on_unwind noalias writable sret(%"class.testing::internal::CartesianProductHolder2.119") align 8 %0, ptr noundef nonnull align 4 dereferenceable(28) %1, ptr noundef nonnull align 8 dereferenceable(24) %2) #5 comdat {
  %4 = alloca ptr, align 8
  %5 = alloca ptr, align 8
  %6 = alloca ptr, align 8
  store ptr %0, ptr %4, align 8
  store ptr %1, ptr %5, align 8
  store ptr %2, ptr %6, align 8
  %7 = load ptr, ptr %5, align 8
  %8 = load ptr, ptr %6, align 8
  call void @_ZN7testing8internal23CartesianProductHolder2INS0_11ValueArray7IN11opencv_test13Feature2DValsES4_S4_S4_S4_S4_S4_EENS0_11ValueArray3IPKcS8_S8_EEEC2ERKS5_RKS9_(ptr noundef nonnull align 8 dereferenceable(56) %0, ptr noundef nonnull align 4 dereferenceable(28) %7, ptr noundef nonnull align 8 dereferenceable(24) %8)
  ret void
}

; Function Attrs: mustprogress uwtable
define linkonce_odr hidden void @_ZN7testing6ValuesIPKcS2_S2_EENS_8internal11ValueArray3IT_T0_T1_EES5_S6_S7_(ptr dead_on_unwind noalias writable sret(%"class.testing::internal::ValueArray3") align 8 %0, ptr noundef %1, ptr noundef %2, ptr noundef %3) #5 comdat {
  %5 = alloca ptr, align 8
  %6 = alloca ptr, align 8
  %7 = alloca ptr, align 8
  %8 = alloca ptr, align 8
  store ptr %0, ptr %5, align 8
  store ptr %1, ptr %6, align 8
  store ptr %2, ptr %7, align 8
  store ptr %3, ptr %8, align 8
  %9 = load ptr, ptr %6, align 8
  %10 = load ptr, ptr %7, align 8
  %11 = load ptr, ptr %8, align 8
  call void @_ZN7testing8internal11ValueArray3IPKcS3_S3_EC2ES3_S3_S3_(ptr noundef nonnull align 8 dereferenceable(24) %0, ptr noundef %9, ptr noundef %10, ptr noundef %11)
  ret void
}

; Function Attrs: mustprogress uwtable
define linkonce_odr hidden void @_ZN7testing6ValuesIN11opencv_test13Feature2DValsES2_S2_S2_S2_S2_S2_EENS_8internal11ValueArray7IT_T0_T1_T2_T3_T4_T5_EES5_S6_S7_S8_S9_SA_SB_(ptr dead_on_unwind noalias writable sret(%"class.testing::internal::ValueArray7") align 4 %0, i32 noundef %1, i32 noundef %2, i32 noundef %3, i32 noundef %4, i32 noundef %5, i32 noundef %6, i32 noundef %7) #5 comdat {
  %9 = alloca ptr, align 8
  %10 = alloca i32, align 4
  %11 = alloca i32, align 4
  %12 = alloca i32, align 4
  %13 = alloca i32, align 4
  %14 = alloca i32, align 4
  %15 = alloca i32, align 4
  %16 = alloca i32, align 4
  store ptr %0, ptr %9, align 8
  store i32 %1, ptr %10, align 4
  store i32 %2, ptr %11, align 4
  store i32 %3, ptr %12, align 4
  store i32 %4, ptr %13, align 4
  store i32 %5, ptr %14, align 4
  store i32 %6, ptr %15, align 4
  store i32 %7, ptr %16, align 4
  %17 = load i32, ptr %10, align 4
  %18 = load i32, ptr %11, align 4
  %19 = load i32, ptr %12, align 4
  %20 = load i32, ptr %13, align 4
  %21 = load i32, ptr %14, align 4
  %22 = load i32, ptr %15, align 4
  %23 = load i32, ptr %16, align 4
  call void @_ZN7testing8internal11ValueArray7IN11opencv_test13Feature2DValsES3_S3_S3_S3_S3_S3_EC2ES3_S3_S3_S3_S3_S3_S3_(ptr noundef nonnull align 4 dereferenceable(28) %0, i32 noundef %17, i32 noundef %18, i32 noundef %19, i32 noundef %20, i32 noundef %21, i32 noundef %22, i32 noundef %23)
  ret void
}

; Function Attrs: mustprogress uwtable
define internal void @_ZN11opencv_testL38gtest_feature2d_extract_EvalGenerator_B5cxx11Ev(ptr dead_on_unwind noalias writable sret(%"class.testing::internal::ParamGenerator") align 8 %0) #5 {
  %2 = alloca ptr, align 8
  %3 = alloca %"class.testing::internal::CartesianProductHolder2.119", align 8
  %4 = alloca %"class.testing::internal::ValueArray7", align 4
  %5 = alloca %"class.testing::internal::ValueArray3", align 8
  store ptr %0, ptr %2, align 8
  call void @_ZN7testing6ValuesIN11opencv_test13Feature2DValsES2_S2_S2_S2_S2_S2_EENS_8internal11ValueArray7IT_T0_T1_T2_T3_T4_T5_EES5_S6_S7_S8_S9_SA_SB_(ptr dead_on_unwind writable sret(%"class.testing::internal::ValueArray7") align 4 %4, i32 noundef 13, i32 noundef 14, i32 noundef 15, i32 noundef 16, i32 noundef 17, i32 noundef 18, i32 noundef 19)
  call void @_ZN7testing6ValuesIPKcS2_S2_EENS_8internal11ValueArray3IT_T0_T1_EES5_S6_S7_(ptr dead_on_unwind writable sret(%"class.testing::internal::ValueArray3") align 8 %5, ptr noundef @.str.49, ptr noundef @.str.50, ptr noundef @.str.51)
  call void @_ZN7testing7CombineINS_8internal11ValueArray7IN11opencv_test13Feature2DValsES4_S4_S4_S4_S4_S4_EENS1_11ValueArray3IPKcS8_S8_EEEENS1_23CartesianProductHolder2IT_T0_EERKSB_RKSC_(ptr dead_on_unwind writable sret(%"class.testing::internal::CartesianProductHolder2.119") align 8 %3, ptr noundef nonnull align 4 dereferenceable(28) %4, ptr noundef nonnull align 8 dereferenceable(24) %5)
  call void @_ZNK7testing8internal23CartesianProductHolder2INS0_11ValueArray7IN11opencv_test13Feature2DValsES4_S4_S4_S4_S4_S4_EENS0_11ValueArray3IPKcS8_S8_EEEcvNS0_14ParamGeneratorISt5tupleIJT_T0_EEEEINS3_12_GLOBAL__N_113Feature2DTypeENSt7__cxx1112basic_stringIcSt11char_traitsIcESaIcEEEEEv(ptr dead_on_unwind writable sret(%"class.testing::internal::ParamGenerator") align 8 %0, ptr noundef nonnull align 8 dereferenceable(56) %3)
  ret void
}